; Function Attrs: nounwind uwtable
define internal fastcc i32 @session_process_push_promise_frame(ptr noundef %0) unnamed_addr #1 {
  %2 = getelementptr inbounds nuw i8, ptr %0, i64 728
  %3 = getelementptr inbounds nuw i8, ptr %0, i64 848
  %4 = load ptr, ptr %3, align 8, !tbaa !238
  %5 = tail call i32 @nghttp2_frame_unpack_push_promise_payload(ptr noundef nonnull %2, ptr noundef %4) #20
  %.not = icmp eq i32 %5, 0
  br i1 %.not, label %18, label %6

6:                                                ; preds = %1
  %7 = getelementptr inbounds nuw i8, ptr %0, i64 2845
  %8 = load i8, ptr %7, align 1, !tbaa !4
  %9 = and i8 %8, 1
  %.not.i.i = icmp eq i8 %9, 0
  br i1 %.not.i.i, label %10, label %nghttp2_session_terminate_session_with_reason.exit

10:                                               ; preds = %6
  %11 = getelementptr inbounds nuw i8, ptr %0, i64 2724
  %12 = load i32, ptr %11, align 4, !tbaa !38
  %13 = getelementptr inbounds nuw i8, ptr %0, i64 952
  store i32 15, ptr %13, align 8, !tbaa !39
  %14 = tail call i32 @nghttp2_session_add_goaway(ptr noundef nonnull %0, i32 noundef %12, i32 noundef 1, ptr noundef nonnull readonly @.str.62, i64 noundef 30, i8 noundef zeroext 1)
  %.not17.i.i = icmp eq i32 %14, 0
  br i1 %.not17.i.i, label %15, label %nghttp2_session_terminate_session_with_reason.exit

15:                                               ; preds = %10
  %16 = load i8, ptr %7, align 1, !tbaa !4
  %17 = or i8 %16, 1
  store i8 %17, ptr %7, align 1, !tbaa !4
  br label %nghttp2_session_terminate_session_with_reason.exit

18:                                               ; preds = %1
  %19 = tail call i32 @nghttp2_session_on_push_promise_received(ptr noundef nonnull %0, ptr noundef nonnull %2)
  br label %nghttp2_session_terminate_session_with_reason.exit

nghttp2_session_terminate_session_with_reason.exit: ; preds = %15, %10, %6, %18
  %.0 = phi i32 [ %19, %18 ], [ 0, %15 ], [ 0, %6 ], [ %14, %10 ]
  ret i32 %.0
}